target datalayout = "e-m:e-p270:32:32-p271:32:32-p272:64:64-i64:64-i128:128-f80:128-n8:16:32:64-S128"
target triple = "x86_64-pc-linux-gnu"

%struct.ARKodeMemRec = type { ptr, double, ptr, i32, i32, double, double, ptr, i32, double, ptr, i32, i32, ptr, ptr, i32, ptr, ptr, i32, ptr, ptr, ptr, ptr, ptr, ptr, ptr, ptr, ptr, ptr, ptr, ptr, ptr, ptr, ptr, i32, ptr, ptr, i32, ptr, i32, ptr, ptr, ptr, ptr, ptr, ptr, ptr, ptr, ptr, ptr, ptr, ptr, ptr, ptr, ptr, ptr, ptr, ptr, ptr, ptr, ptr, ptr, ptr, ptr, ptr, ptr, i32, ptr, ptr, ptr, ptr, ptr, ptr, ptr, i32, ptr, ptr, ptr, i32, ptr, ptr, ptr, ptr, ptr, ptr, ptr, i32, i32, i32, i32, double, double, double, double, double, double, double, double, double, double, i32, ptr, i64, i32, i32, i32, i32, i64, i64, i32, i64, i64, i64, i64, i64, i64, i64, double, double, double, double, double, i32, double, double, i32, i32, i32, i32, i32, i32, i32, i32, ptr, i32, ptr, ptr, ptr, ptr, i32, i32, i32 }

@.str = private unnamed_addr constant [115 x i8] c"generated/home/dtcxzyw/WorkSpace/Projects/compilers/llvm-opt-benchmark/bench/sundials/sundials/src/arkode/arkode.c\00", align 1
@.str.1 = private unnamed_addr constant [27 x i8] c"arkode_mem = NULL illegal.\00", align 1
@__func__.ARKodeReset = private unnamed_addr constant [12 x i8] c"ARKodeReset\00", align 1
@.str.6 = private unnamed_addr constant [21 x i8] c"ARKode reset failure\00", align 1

; Function Attrs: nounwind uwtable
define i32 @ARKodeReset(ptr noundef %0, double noundef %1, ptr noundef %2) #0 {
  %4 = alloca i32, align 4
  %5 = alloca ptr, align 8
  %6 = alloca double, align 8
  %7 = alloca ptr, align 8
  %8 = alloca ptr, align 8
  %9 = alloca i32, align 4
  %10 = alloca i32, align 4
  store ptr %0, ptr %5, align 8, !tbaa !3
  store double %1, ptr %6, align 8, !tbaa !9
  store ptr %2, ptr %7, align 8, !tbaa !7
  call void @llvm.lifetime.start.p0(i64 8, ptr %8) #10
  call void @llvm.lifetime.start.p0(i64 4, ptr %9) #10
  %11 = load ptr, ptr %5, align 8, !tbaa !3
  %12 = icmp eq ptr %11, null
  br i1 %12, label %13, label %14

13:                                               ; preds = %3
  call void (ptr, i32, i32, ptr, ptr, ptr, ...) @arkProcessError(ptr noundef null, i32 noundef -21, i32 noundef 204, ptr noundef @__func__.ARKodeReset, ptr noundef @.str, ptr noundef @.str.1)
  store i32 -21, ptr %4, align 4
  store i32 1, ptr %10, align 4
  br label %40

14:                                               ; preds = %3
  %15 = load ptr, ptr %5, align 8, !tbaa !3
  store ptr %15, ptr %8, align 8, !tbaa !11
  %16 = load ptr, ptr %8, align 8, !tbaa !11
  %17 = load double, ptr %6, align 8, !tbaa !9
  %18 = load ptr, ptr %7, align 8, !tbaa !7
  %19 = call i32 @arkInit(ptr noundef %16, double noundef %17, ptr noundef %18, i32 noundef 1)
  store i32 %19, ptr %9, align 4, !tbaa !38
  %20 = load i32, ptr %9, align 4, !tbaa !38
  %21 = icmp ne i32 %20, 0
  br i1 %21, label %22, label %26

22:                                               ; preds = %14
  %23 = load ptr, ptr %8, align 8, !tbaa !11
  %24 = load i32, ptr %9, align 4, !tbaa !38
  call void (ptr, i32, i32, ptr, ptr, ptr, ...) @arkProcessError(ptr noundef %23, i32 noundef %24, i32 noundef 214, ptr noundef @__func__.ARKodeReset, ptr noundef @.str, ptr noundef @.str.6)
  %25 = load i32, ptr %9, align 4, !tbaa !38
  store i32 %25, ptr %4, align 4
  store i32 1, ptr %10, align 4
  br label %40

26:                                               ; preds = %14
  %27 = load ptr, ptr %8, align 8, !tbaa !11
  %28 = getelementptr inbounds nuw %struct.ARKodeMemRec, ptr %27, i32 0, i32 27
  %29 = load ptr, ptr %28, align 8, !tbaa !58
  %30 = icmp ne ptr %29, null
  br i1 %30, label %31, label %39

31:                                               ; preds = %26
  %32 = load ptr, ptr %8, align 8, !tbaa !11
  %33 = getelementptr inbounds nuw %struct.ARKodeMemRec, ptr %32, i32 0, i32 27
  %34 = load ptr, ptr %33, align 8, !tbaa !58
  %35 = load ptr, ptr %8, align 8, !tbaa !11
  %36 = load double, ptr %6, align 8, !tbaa !9
  %37 = load ptr, ptr %7, align 8, !tbaa !7
  %38 = call i32 %34(ptr noundef %35, double noundef %36, ptr noundef %37)
  store i32 %38, ptr %4, align 4
  store i32 1, ptr %10, align 4
  br label %40

39:                                               ; preds = %26
  store i32 0, ptr %4, align 4
  store i32 1, ptr %10, align 4
  br label %40

40:                                               ; preds = %39, %31, %22, %13
  call void @llvm.lifetime.end.p0(i64 4, ptr %9) #10
  call void @llvm.lifetime.end.p0(i64 8, ptr %8) #10
  %41 = load i32, ptr %4, align 4
  ret i32 %41
}

; Function Attrs: nounwind uwtable
define i32 @ark_MRIStepInnerReset(ptr noundef %0, double noundef %1, ptr noundef %2) #0 {
  %4 = alloca i32, align 4
  %5 = alloca ptr, align 8
  %6 = alloca double, align 8
  %7 = alloca ptr, align 8
  %8 = alloca ptr, align 8
  %9 = alloca i32, align 4
  %10 = alloca i32, align 4
  store ptr %0, ptr %5, align 8, !tbaa !161
  store double %1, ptr %6, align 8, !tbaa !9
  store ptr %2, ptr %7, align 8, !tbaa !7
  call void @llvm.lifetime.start.p0(i64 8, ptr %8) #10
  call void @llvm.lifetime.start.p0(i64 4, ptr %9) #10
  %11 = load ptr, ptr %5, align 8, !tbaa !161
  %12 = call i32 @MRIStepInnerStepper_GetContent(ptr noundef %11, ptr noundef %8)
  store i32 %12, ptr %9, align 4, !tbaa !38
  %13 = load i32, ptr %9, align 4, !tbaa !38
  %14 = icmp ne i32 %13, 0
  br i1 %14, label %15, label %16

15:                                               ; preds = %3
  store i32 -1, ptr %4, align 4
  store i32 1, ptr %10, align 4
  br label %25

16:                                               ; preds = %3
  %17 = load ptr, ptr %8, align 8, !tbaa !3
  %18 = load double, ptr %6, align 8, !tbaa !9
  %19 = load ptr, ptr %7, align 8, !tbaa !7
  %20 = call i32 @ARKodeReset(ptr noundef %17, double noundef %18, ptr noundef %19)
  store i32 %20, ptr %9, align 4, !tbaa !38
  %21 = load i32, ptr %9, align 4, !tbaa !38
  %22 = icmp eq i32 %21, 0
  br i1 %22, label %23, label %24

23:                                               ; preds = %16
  store i32 0, ptr %4, align 4
  store i32 1, ptr %10, align 4
  br label %25

24:                                               ; preds = %16
  store i32 -1, ptr %4, align 4
  store i32 1, ptr %10, align 4
  br label %25

25:                                               ; preds = %24, %23, %15
  call void @llvm.lifetime.end.p0(i64 4, ptr %9) #10
  call void @llvm.lifetime.end.p0(i64 8, ptr %8) #10
  %26 = load i32, ptr %4, align 4
  ret i32 %26
}