; Function Attrs: nounwind uwtable
define range(i32 -1, 1) i32 @ark_MRIStepInnerReset(ptr noundef %0, double noundef %1, ptr noundef %2) #0 {
  %4 = alloca ptr, align 8
  call void @llvm.lifetime.start.p0(i64 8, ptr nonnull %4) #16
  %5 = call i32 @MRIStepInnerStepper_GetContent(ptr noundef %0, ptr noundef nonnull %4) #16
  %.not = icmp eq i32 %5, 0
  br i1 %.not, label %6, label %ARKodeReset.exit.thread

6:                                                ; preds = %3
  %7 = load ptr, ptr %4, align 8, !tbaa !157
  %8 = icmp eq ptr %7, null
  br i1 %8, label %9, label %10

9:                                                ; preds = %6
  call void (ptr, i32, i32, ptr, ptr, ptr, ...) @arkProcessError(ptr noundef null, i32 noundef -21, i32 noundef 204, ptr noundef nonnull @__func__.ARKodeReset, ptr noundef nonnull @.str, ptr noundef nonnull @.str.1)
  br label %ARKodeReset.exit.thread

10:                                               ; preds = %6
  %11 = call i32 @arkInit(ptr noundef nonnull %7, double noundef %1, ptr noundef %2, i32 noundef 1)
  %.not.i = icmp eq i32 %11, 0
  br i1 %.not.i, label %13, label %12

12:                                               ; preds = %10
  call void (ptr, i32, i32, ptr, ptr, ptr, ...) @arkProcessError(ptr noundef nonnull %7, i32 noundef %11, i32 noundef 214, ptr noundef nonnull @__func__.ARKodeReset, ptr noundef nonnull @.str, ptr noundef nonnull @.str.6)
  br label %ARKodeReset.exit.thread

13:                                               ; preds = %10
  %14 = getelementptr inbounds nuw i8, ptr %7, i64 200
  %15 = load ptr, ptr %14, align 8, !tbaa !58
  %.not17.i = icmp eq ptr %15, null
  br i1 %.not17.i, label %ARKodeReset.exit.thread7, label %ARKodeReset.exit

ARKodeReset.exit:                                 ; preds = %13
  %16 = call i32 %15(ptr noundef nonnull %7, double noundef %1, ptr noundef %2) #16
  %.fr = freeze i32 %16
  %17 = icmp eq i32 %.fr, 0
  br i1 %17, label %ARKodeReset.exit.thread7, label %ARKodeReset.exit.thread

ARKodeReset.exit.thread7:                         ; preds = %13, %ARKodeReset.exit
  br label %ARKodeReset.exit.thread

ARKodeReset.exit.thread:                          ; preds = %12, %9, %ARKodeReset.exit.thread7, %ARKodeReset.exit, %3
  %.0 = phi i32 [ -1, %3 ], [ 0, %ARKodeReset.exit.thread7 ], [ -1, %ARKodeReset.exit ], [ -1, %9 ], [ -1, %12 ]
  call void @llvm.lifetime.end.p0(i64 8, ptr nonnull %4) #16
  ret i32 %.0
}